target datalayout = "e-m:e-p270:32:32-p271:32:32-p272:64:64-i64:64-i128:128-f80:128-n8:16:32:64-S128"
target triple = "x86_64-pc-linux-gnu"

%class.RangeCoder = type { i32, i32, i32, %"struct.RangeCoder::SUBRANGE", ptr }
%"struct.RangeCoder::SUBRANGE" = type { i32, i32, i32 }
%class.SubAllocator = type { i64, [38 x i8], [128 x i8], i8, ptr, ptr, ptr, [38 x %"struct.SubAllocator::RAR_NODE"], ptr, ptr, ptr, ptr }
%"struct.SubAllocator::RAR_NODE" = type { ptr }
%class.ModelPPM = type <{ i8, [25 x [16 x %struct.RARPPM_SEE2_CONTEXT]], %struct.RARPPM_SEE2_CONTEXT, [3 x i8], ptr, ptr, ptr, ptr, i32, i32, i32, i32, i32, i32, [256 x i8], [256 x i8], [256 x i8], [256 x i8], i8, i8, i8, i8, [128 x [64 x i16]], [4 x i8], %class.RangeCoder, %class.SubAllocator }>
%struct.RARPPM_SEE2_CONTEXT = type { i16, i8, i8 }
%class.Unpack = type { ptr, %class.BitInput, %class.Array, %class.Array, %class.Array.0, [4 x i32], i32, i32, i32, i64, i64, i32, i32, %struct.UnpackBlockHeader, %struct.UnpackBlockTables, i64, ptr, %class.FragmentedWindow, i8, i64, i8, i8, i8, i64, i8, [256 x i16], [256 x i16], [256 x i16], [256 x i16], [256 x i8], [256 x i8], [256 x i8], i32, i32, i32, i32, i32, i32, i32, i32, i32, i32, i32, i32, i32, i32, [4 x %struct.DecodeTable], [1028 x i8], i8, i32, i32, i32, [4 x %struct.AudioVariables], i32, i32, %class.ModelPPM, i32, [404 x i8], i32, i8, i8, i8, %class.RarVM, %class.BitInput, %class.Array.1, %class.Array.1, %class.Array.2, i32, i64, i64 }
%class.Array = type { ptr, i64, i64, i64 }
%class.Array.0 = type { ptr, i64, i64, i64 }
%struct.UnpackBlockHeader = type { i32, i32, i32, i32, i8, i8 }
%struct.UnpackBlockTables = type { %struct.DecodeTable, %struct.DecodeTable, %struct.DecodeTable, %struct.DecodeTable, %struct.DecodeTable }
%struct.DecodeTable = type { i32, [16 x i32], [16 x i32], i32, [1024 x i8], [1024 x i16], [306 x i16] }
%class.FragmentedWindow = type { [32 x ptr], [32 x i64] }
%struct.AudioVariables = type { i32, i32, i32, i32, i32, i32, i32, i32, i32, i32, [11 x i32], i32, i32 }
%class.RarVM = type { ptr, [8 x i32] }
%class.BitInput = type { i32, i32, i8, ptr }
%class.Array.1 = type { ptr, i64, i64, i64 }
%class.Array.2 = type { ptr, i64, i64, i64 }
%struct.VM_PreparedProgram = type <{ i32, [7 x i32], ptr, i32, [4 x i8] }>

; Function Attrs: mustprogress uwtable
define void @_ZN6Unpack11ExecuteCodeEP18VM_PreparedProgram(ptr noundef nonnull align 8 dereferenceable(59688) %0, ptr noundef %1) #0 align 2 {
  %3 = alloca ptr, align 8
  %4 = alloca ptr, align 8
  store ptr %0, ptr %3, align 8
  store ptr %1, ptr %4, align 8
  %5 = load ptr, ptr %3, align 8
  %6 = getelementptr inbounds %class.Unpack, ptr %5, i32 0, i32 23
  %7 = load i64, ptr %6, align 8
  %8 = trunc i64 %7 to i32
  %9 = load ptr, ptr %4, align 8
  %10 = getelementptr inbounds %struct.VM_PreparedProgram, ptr %9, i32 0, i32 1
  %11 = getelementptr inbounds [7 x i32], ptr %10, i64 0, i64 6
  store i32 %8, ptr %11, align 4
  %12 = getelementptr inbounds %class.Unpack, ptr %5, i32 0, i32 62
  %13 = load ptr, ptr %4, align 8
  call void @_ZN5RarVM7ExecuteEP18VM_PreparedProgram(ptr noundef nonnull align 8 dereferenceable(40) %12, ptr noundef %13)
  ret void
}