; Function Attrs: mustprogress uwtable
define void @_ZN6Unpack11ExecuteCodeEP18VM_PreparedProgram(ptr noundef nonnull align 8 dereferenceable(59688) %0, ptr noundef %1) local_unnamed_addr #0 align 2 {
  %3 = getelementptr inbounds i8, ptr %0, i64 19856
  %4 = load i64, ptr %3, align 8
  %5 = trunc i64 %4 to i32
  %6 = getelementptr inbounds i8, ptr %1, i64 28
  store i32 %5, ptr %6, align 4
  %7 = getelementptr inbounds i8, ptr %0, i64 59504
  tail call void @_ZN5RarVM7ExecuteEP18VM_PreparedProgram(ptr noundef nonnull align 8 dereferenceable(40) %7, ptr noundef %1)
  ret void
}